target datalayout = "e-m:e-p270:32:32-p271:32:32-p272:64:64-i64:64-i128:128-f80:128-n8:16:32:64-S128"
target triple = "x86_64-pc-linux-gnu"

%struct.tr2_cfg_data = type { ptr, i32 }
%struct.strbuf = type { i64, i64, ptr }
%struct.config_context = type { ptr }

@tr2_cfg_patterns = internal global ptr null, align 8

; Function Attrs: nounwind uwtable
define internal i32 @tr2_cfg_cb(ptr noundef %0, ptr noundef %1, ptr noundef %2, ptr noundef %3) #0 {
  %5 = alloca i32, align 4
  %6 = alloca ptr, align 8
  %7 = alloca ptr, align 8
  %8 = alloca ptr, align 8
  %9 = alloca ptr, align 8
  %10 = alloca ptr, align 8
  %11 = alloca ptr, align 8
  %12 = alloca ptr, align 8
  %13 = alloca i32, align 4
  %14 = alloca i32, align 4
  store ptr %0, ptr %6, align 8, !tbaa !11
  store ptr %1, ptr %7, align 8, !tbaa !11
  store ptr %2, ptr %8, align 8, !tbaa !27
  store ptr %3, ptr %9, align 8, !tbaa !29
  call void @llvm.lifetime.start.p0(i64 8, ptr %10) #9
  call void @llvm.lifetime.start.p0(i64 8, ptr %11) #9
  %15 = load ptr, ptr %9, align 8, !tbaa !29
  store ptr %15, ptr %11, align 8, !tbaa !30
  %16 = load ptr, ptr @tr2_cfg_patterns, align 8, !tbaa !4
  store ptr %16, ptr %10, align 8, !tbaa !4
  br label %17

17:                                               ; preds = %47, %4
  %18 = load ptr, ptr %10, align 8, !tbaa !4
  %19 = load ptr, ptr %18, align 8, !tbaa !19
  %20 = icmp ne ptr %19, null
  br i1 %20, label %21, label %50

21:                                               ; preds = %17
  call void @llvm.lifetime.start.p0(i64 8, ptr %12) #9
  %22 = load ptr, ptr %10, align 8, !tbaa !4
  %23 = load ptr, ptr %22, align 8, !tbaa !19
  store ptr %23, ptr %12, align 8, !tbaa !19
  call void @llvm.lifetime.start.p0(i64 4, ptr %13) #9
  %24 = load ptr, ptr %12, align 8, !tbaa !19
  %25 = getelementptr inbounds nuw %struct.strbuf, ptr %24, i32 0, i32 2
  %26 = load ptr, ptr %25, align 8, !tbaa !24
  %27 = load ptr, ptr %6, align 8, !tbaa !11
  %28 = call i32 @wildmatch(ptr noundef %26, ptr noundef %27, i32 noundef 1)
  store i32 %28, ptr %13, align 4, !tbaa !9
  %29 = load i32, ptr %13, align 4, !tbaa !9
  %30 = icmp eq i32 %29, 0
  br i1 %30, label %31, label %43

31:                                               ; preds = %21
  %32 = load ptr, ptr %11, align 8, !tbaa !30
  %33 = getelementptr inbounds nuw %struct.tr2_cfg_data, ptr %32, i32 0, i32 0
  %34 = load ptr, ptr %33, align 8, !tbaa !13
  %35 = load ptr, ptr %11, align 8, !tbaa !30
  %36 = getelementptr inbounds nuw %struct.tr2_cfg_data, ptr %35, i32 0, i32 1
  %37 = load i32, ptr %36, align 8, !tbaa !15
  %38 = load ptr, ptr %6, align 8, !tbaa !11
  %39 = load ptr, ptr %7, align 8, !tbaa !11
  %40 = load ptr, ptr %8, align 8, !tbaa !27
  %41 = getelementptr inbounds nuw %struct.config_context, ptr %40, i32 0, i32 0
  %42 = load ptr, ptr %41, align 8, !tbaa !32
  call void @trace2_def_param_fl(ptr noundef %34, i32 noundef %37, ptr noundef %38, ptr noundef %39, ptr noundef %42)
  store i32 0, ptr %5, align 4
  store i32 1, ptr %14, align 4
  br label %44

43:                                               ; preds = %21
  store i32 0, ptr %14, align 4
  br label %44

44:                                               ; preds = %43, %31
  call void @llvm.lifetime.end.p0(i64 4, ptr %13) #9
  call void @llvm.lifetime.end.p0(i64 8, ptr %12) #9
  %45 = load i32, ptr %14, align 4
  switch i32 %45, label %51 [
    i32 0, label %46
  ]

46:                                               ; preds = %44
  br label %47

47:                                               ; preds = %46
  %48 = load ptr, ptr %10, align 8, !tbaa !4
  %49 = getelementptr inbounds nuw ptr, ptr %48, i32 1
  store ptr %49, ptr %10, align 8, !tbaa !4
  br label %17, !llvm.loop !35

50:                                               ; preds = %17
  store i32 0, ptr %5, align 4
  store i32 1, ptr %14, align 4
  br label %51

51:                                               ; preds = %50, %44
  call void @llvm.lifetime.end.p0(i64 8, ptr %11) #9
  call void @llvm.lifetime.end.p0(i64 8, ptr %10) #9
  %52 = load i32, ptr %5, align 4
  ret i32 %52
}