; Function Attrs: nounwind uwtable
define internal noundef i32 @tr2_cfg_cb(ptr noundef %0, ptr noundef %1, ptr noundef readonly captures(none) %2, ptr noundef readonly captures(none) %3) #0 {
  %5 = load ptr, ptr @tr2_cfg_patterns, align 8, !tbaa !4
  %6 = load ptr, ptr %5, align 8, !tbaa !18
  %.not17 = icmp eq ptr %6, null
  br i1 %.not17, label %.loopexit, label %.critedge

7:                                                ; preds = %.critedge
  %8 = getelementptr inbounds nuw i8, ptr %.01418, i64 8
  %9 = load ptr, ptr %8, align 8, !tbaa !18
  %.not = icmp eq ptr %9, null
  br i1 %.not, label %.loopexit, label %.critedge, !llvm.loop !27

.critedge:                                        ; preds = %4, %7
  %10 = phi ptr [ %9, %7 ], [ %6, %4 ]
  %.01418 = phi ptr [ %8, %7 ], [ %5, %4 ]
  %11 = getelementptr inbounds nuw i8, ptr %10, i64 16
  %12 = load ptr, ptr %11, align 8, !tbaa !23
  %13 = tail call i32 @wildmatch(ptr noundef %12, ptr noundef %0, i32 noundef 1) #8
  %.not16 = icmp eq i32 %13, 0
  br i1 %.not16, label %14, label %7

14:                                               ; preds = %.critedge
  %15 = load ptr, ptr %3, align 8, !tbaa !11
  %16 = getelementptr inbounds nuw i8, ptr %3, i64 8
  %17 = load i32, ptr %16, align 8, !tbaa !14
  %18 = load ptr, ptr %2, align 8, !tbaa !28
  tail call void @trace2_def_param_fl(ptr noundef %15, i32 noundef %17, ptr noundef %0, ptr noundef %1, ptr noundef %18) #8
  br label %.loopexit

.loopexit:                                        ; preds = %7, %4, %14
  ret i32 0
}